; ModuleID = 'source-C-CXX/60/293.cpp'
source_filename = "source-C-CXX/60/293.cpp"
target datalayout = "e-m:e-p270:32:32-p271:32:32-p272:64:64-i64:64-f80:128-n8:16:32:64-S128"
target triple = "x86_64-pc-linux-gnu"

%"class.std::ios_base::Init" = type { i8 }
%"class.std::basic_istream" = type { i32 (...)**, i64, %"class.std::basic_ios" }
%"class.std::basic_ios" = type { %"class.std::ios_base", %"class.std::basic_ostream"*, i8, i8, %"class.std::basic_streambuf"*, %"class.std::ctype"*, %"class.std::num_put"*, %"class.std::num_get"* }
%"class.std::ios_base" = type { i32 (...)**, i64, i64, i32, i32, i32, %"struct.std::ios_base::_Callback_list"*, %"struct.std::ios_base::_Words", [8 x %"struct.std::ios_base::_Words"], i32, %"struct.std::ios_base::_Words"*, %"class.std::locale" }
%"struct.std::ios_base::_Callback_list" = type { %"struct.std::ios_base::_Callback_list"*, void (i32, %"class.std::ios_base"*, i32)*, i32, i32 }
%"struct.std::ios_base::_Words" = type { i8*, i64 }
%"class.std::locale" = type { %"class.std::locale::_Impl"* }
%"class.std::locale::_Impl" = type { i32, %"class.std::locale::facet"**, i64, %"class.std::locale::facet"**, i8** }
%"class.std::locale::facet" = type <{ i32 (...)**, i32, [4 x i8] }>
%"class.std::basic_ostream" = type { i32 (...)**, %"class.std::basic_ios" }
%"class.std::basic_streambuf" = type { i32 (...)**, i8*, i8*, i8*, i8*, i8*, i8*, %"class.std::locale" }
%"class.std::ctype" = type <{ %"class.std::locale::facet.base", [4 x i8], %struct.__locale_struct*, i8, [7 x i8], i32*, i32*, i16*, i8, [256 x i8], [256 x i8], i8, [6 x i8] }>
%"class.std::locale::facet.base" = type <{ i32 (...)**, i32 }>
%struct.__locale_struct = type { [13 x %struct.__locale_data*], i16*, i32*, i32*, [13 x i8*] }
%struct.__locale_data = type opaque
%"class.std::num_put" = type { %"class.std::locale::facet.base", [4 x i8] }
%"class.std::num_get" = type { %"class.std::locale::facet.base", [4 x i8] }

@_ZStL8__ioinit = internal global %"class.std::ios_base::Init" zeroinitializer, align 1
@__dso_handle = external hidden global i8
@_ZSt3cin = external global %"class.std::basic_istream", align 8
@_ZSt4cout = external global %"class.std::basic_ostream", align 8
@llvm.global_ctors = appending global [1 x { i32, void ()*, i8* }] [{ i32, void ()*, i8* } { i32 65535, void ()* @_GLOBAL__sub_I_293.cpp, i8* null }]

declare void @_ZNSt8ios_base4InitC1Ev(%"class.std::ios_base::Init"* nonnull align 1 dereferenceable(1)) unnamed_addr #0

; Function Attrs: nounwind
declare void @_ZNSt8ios_base4InitD1Ev(%"class.std::ios_base::Init"* nonnull align 1 dereferenceable(1)) unnamed_addr #1

; Function Attrs: nofree nounwind
declare i32 @__cxa_atexit(void (i8*)*, i8*, i8*) local_unnamed_addr #2

; Function Attrs: mustprogress norecurse sspstrong uwtable
define dso_local i32 @main() local_unnamed_addr #3 {
  %1 = alloca [21 x i32], align 16
  %2 = alloca i32, align 4
  %3 = alloca i32, align 4
  %4 = bitcast [21 x i32]* %1 to i8*
  call void @llvm.lifetime.start.p0i8(i64 84, i8* nonnull %4) #8
  call void @llvm.memset.p0i8.i64(i8* noundef nonnull align 16 dereferenceable(84) %4, i8 0, i64 84, i1 false)
  %5 = bitcast i32* %2 to i8*
  call void @llvm.lifetime.start.p0i8(i64 4, i8* nonnull %5) #8
  %6 = bitcast i32* %3 to i8*
  call void @llvm.lifetime.start.p0i8(i64 4, i8* nonnull %6) #8
  %7 = call nonnull align 8 dereferenceable(16) %"class.std::basic_istream"* @_ZNSirsERi(%"class.std::basic_istream"* nonnull align 8 dereferenceable(16) @_ZSt3cin, i32* nonnull align 4 dereferenceable(4) %2)
  %8 = getelementptr inbounds [21 x i32], [21 x i32]* %1, i64 0, i64 1
  store i32 1, i32* %8, align 4, !tbaa !5
  %9 = getelementptr inbounds [21 x i32], [21 x i32]* %1, i64 0, i64 2
  store i32 1, i32* %9, align 8, !tbaa !5
  %10 = load i32, i32* %2, align 4, !tbaa !5
  %11 = add nsw i32 %10, -1
  store i32 %11, i32* %2, align 4, !tbaa !5
  %12 = icmp eq i32 %10, 0
  br i1 %12, label %143, label %13

13:                                               ; preds = %0, %137
  %14 = call nonnull align 8 dereferenceable(16) %"class.std::basic_istream"* @_ZNSirsERi(%"class.std::basic_istream"* nonnull align 8 dereferenceable(16) @_ZSt3cin, i32* nonnull align 4 dereferenceable(4) %3)
  %15 = load i32, i32* %3, align 4, !tbaa !5
  %16 = add i32 %15, -1
  %17 = icmp ult i32 %16, 2
  br i1 %17, label %30, label %18

18:                                               ; preds = %13
  %19 = icmp slt i32 %15, 3
  br i1 %19, label %104, label %20

20:                                               ; preds = %18
  %21 = add nuw i32 %15, 1
  %22 = zext i32 %21 to i64
  %23 = load i32, i32* %9, align 8, !tbaa !5
  %24 = add nsw i64 %22, -3
  %25 = add nsw i64 %22, -4
  %26 = and i64 %24, 3
  %27 = icmp ult i64 %25, 3
  br i1 %27, label %88, label %28

28:                                               ; preds = %20
  %29 = and i64 %24, -4
  br label %60

30:                                               ; preds = %13
  %31 = call nonnull align 8 dereferenceable(8) %"class.std::basic_ostream"* @_ZNSolsEi(%"class.std::basic_ostream"* nonnull align 8 dereferenceable(8) @_ZSt4cout, i32 1)
  %32 = bitcast %"class.std::basic_ostream"* %31 to i8**
  %33 = load i8*, i8** %32, align 8, !tbaa !9
  %34 = getelementptr i8, i8* %33, i64 -24
  %35 = bitcast i8* %34 to i64*
  %36 = load i64, i64* %35, align 8
  %37 = bitcast %"class.std::basic_ostream"* %31 to i8*
  %38 = add nsw i64 %36, 240
  %39 = getelementptr inbounds i8, i8* %37, i64 %38
  %40 = bitcast i8* %39 to %"class.std::ctype"**
  %41 = load %"class.std::ctype"*, %"class.std::ctype"** %40, align 8, !tbaa !11
  %42 = icmp eq %"class.std::ctype"* %41, null
  br i1 %42, label %43, label %44

43:                                               ; preds = %30
  call void @_ZSt16__throw_bad_castv() #9
  unreachable

44:                                               ; preds = %30
  %45 = getelementptr inbounds %"class.std::ctype", %"class.std::ctype"* %41, i64 0, i32 8
  %46 = load i8, i8* %45, align 8, !tbaa !15
  %47 = icmp eq i8 %46, 0
  br i1 %47, label %51, label %48

48:                                               ; preds = %44
  %49 = getelementptr inbounds %"class.std::ctype", %"class.std::ctype"* %41, i64 0, i32 9, i64 10
  %50 = load i8, i8* %49, align 1, !tbaa !17
  br label %57

51:                                               ; preds = %44
  call void @_ZNKSt5ctypeIcE13_M_widen_initEv(%"class.std::ctype"* nonnull align 8 dereferenceable(570) %41)
  %52 = bitcast %"class.std::ctype"* %41 to i8 (%"class.std::ctype"*, i8)***
  %53 = load i8 (%"class.std::ctype"*, i8)**, i8 (%"class.std::ctype"*, i8)*** %52, align 8, !tbaa !9
  %54 = getelementptr inbounds i8 (%"class.std::ctype"*, i8)*, i8 (%"class.std::ctype"*, i8)** %53, i64 6
  %55 = load i8 (%"class.std::ctype"*, i8)*, i8 (%"class.std::ctype"*, i8)** %54, align 8
  %56 = call signext i8 %55(%"class.std::ctype"* nonnull align 8 dereferenceable(570) %41, i8 signext 10)
  br label %57

57:                                               ; preds = %48, %51
  %58 = phi i8 [ %50, %48 ], [ %56, %51 ]
  %59 = call nonnull align 8 dereferenceable(8) %"class.std::basic_ostream"* @_ZNSo3putEc(%"class.std::basic_ostream"* nonnull align 8 dereferenceable(8) %31, i8 signext %58)
  br label %137

60:                                               ; preds = %60, %28
  %61 = phi i32 [ %23, %28 ], [ %83, %60 ]
  %62 = phi i64 [ 3, %28 ], [ %85, %60 ]
  %63 = phi i64 [ %29, %28 ], [ %86, %60 ]
  %64 = add nsw i64 %62, -2
  %65 = getelementptr inbounds [21 x i32], [21 x i32]* %1, i64 0, i64 %64
  %66 = load i32, i32* %65, align 4, !tbaa !5
  %67 = add nsw i32 %66, %61
  %68 = getelementptr inbounds [21 x i32], [21 x i32]* %1, i64 0, i64 %62
  store i32 %67, i32* %68, align 4, !tbaa !5
  %69 = add nuw nsw i64 %62, 1
  %70 = add nsw i64 %62, -1
  %71 = getelementptr inbounds [21 x i32], [21 x i32]* %1, i64 0, i64 %70
  %72 = load i32, i32* %71, align 4, !tbaa !5
  %73 = add nsw i32 %72, %67
  %74 = getelementptr inbounds [21 x i32], [21 x i32]* %1, i64 0, i64 %69
  store i32 %73, i32* %74, align 4, !tbaa !5
  %75 = add nuw nsw i64 %62, 2
  %76 = getelementptr inbounds [21 x i32], [21 x i32]* %1, i64 0, i64 %62
  %77 = load i32, i32* %76, align 4, !tbaa !5
  %78 = add nsw i32 %77, %73
  %79 = getelementptr inbounds [21 x i32], [21 x i32]* %1, i64 0, i64 %75
  store i32 %78, i32* %79, align 4, !tbaa !5
  %80 = add nuw nsw i64 %62, 3
  %81 = getelementptr inbounds [21 x i32], [21 x i32]* %1, i64 0, i64 %69
  %82 = load i32, i32* %81, align 4, !tbaa !5
  %83 = add nsw i32 %82, %78
  %84 = getelementptr inbounds [21 x i32], [21 x i32]* %1, i64 0, i64 %80
  store i32 %83, i32* %84, align 4, !tbaa !5
  %85 = add nuw nsw i64 %62, 4
  %86 = add i64 %63, -4
  %87 = icmp eq i64 %86, 0
  br i1 %87, label %88, label %60, !llvm.loop !18

88:                                               ; preds = %60, %20
  %89 = phi i32 [ %23, %20 ], [ %83, %60 ]
  %90 = phi i64 [ 3, %20 ], [ %85, %60 ]
  %91 = icmp eq i64 %26, 0
  br i1 %91, label %104, label %92

92:                                               ; preds = %88, %92
  %93 = phi i32 [ %99, %92 ], [ %89, %88 ]
  %94 = phi i64 [ %101, %92 ], [ %90, %88 ]
  %95 = phi i64 [ %102, %92 ], [ %26, %88 ]
  %96 = add nsw i64 %94, -2
  %97 = getelementptr inbounds [21 x i32], [21 x i32]* %1, i64 0, i64 %96
  %98 = load i32, i32* %97, align 4, !tbaa !5
  %99 = add nsw i32 %98, %93
  %100 = getelementptr inbounds [21 x i32], [21 x i32]* %1, i64 0, i64 %94
  store i32 %99, i32* %100, align 4, !tbaa !5
  %101 = add nuw nsw i64 %94, 1
  %102 = add i64 %95, -1
  %103 = icmp eq i64 %102, 0
  br i1 %103, label %104, label %92, !llvm.loop !20

104:                                              ; preds = %88, %92, %18
  %105 = sext i32 %15 to i64
  %106 = getelementptr inbounds [21 x i32], [21 x i32]* %1, i64 0, i64 %105
  %107 = load i32, i32* %106, align 4, !tbaa !5
  %108 = call nonnull align 8 dereferenceable(8) %"class.std::basic_ostream"* @_ZNSolsEi(%"class.std::basic_ostream"* nonnull align 8 dereferenceable(8) @_ZSt4cout, i32 %107)
  %109 = bitcast %"class.std::basic_ostream"* %108 to i8**
  %110 = load i8*, i8** %109, align 8, !tbaa !9
  %111 = getelementptr i8, i8* %110, i64 -24
  %112 = bitcast i8* %111 to i64*
  %113 = load i64, i64* %112, align 8
  %114 = bitcast %"class.std::basic_ostream"* %108 to i8*
  %115 = add nsw i64 %113, 240
  %116 = getelementptr inbounds i8, i8* %114, i64 %115
  %117 = bitcast i8* %116 to %"class.std::ctype"**
  %118 = load %"class.std::ctype"*, %"class.std::ctype"** %117, align 8, !tbaa !11
  %119 = icmp eq %"class.std::ctype"* %118, null
  br i1 %119, label %120, label %121

120:                                              ; preds = %104
  call void @_ZSt16__throw_bad_castv() #9
  unreachable

121:                                              ; preds = %104
  %122 = getelementptr inbounds %"class.std::ctype", %"class.std::ctype"* %118, i64 0, i32 8
  %123 = load i8, i8* %122, align 8, !tbaa !15
  %124 = icmp eq i8 %123, 0
  br i1 %124, label %128, label %125

125:                                              ; preds = %121
  %126 = getelementptr inbounds %"class.std::ctype", %"class.std::ctype"* %118, i64 0, i32 9, i64 10
  %127 = load i8, i8* %126, align 1, !tbaa !17
  br label %134

128:                                              ; preds = %121
  call void @_ZNKSt5ctypeIcE13_M_widen_initEv(%"class.std::ctype"* nonnull align 8 dereferenceable(570) %118)
  %129 = bitcast %"class.std::ctype"* %118 to i8 (%"class.std::ctype"*, i8)***
  %130 = load i8 (%"class.std::ctype"*, i8)**, i8 (%"class.std::ctype"*, i8)*** %129, align 8, !tbaa !9
  %131 = getelementptr inbounds i8 (%"class.std::ctype"*, i8)*, i8 (%"class.std::ctype"*, i8)** %130, i64 6
  %132 = load i8 (%"class.std::ctype"*, i8)*, i8 (%"class.std::ctype"*, i8)** %131, align 8
  %133 = call signext i8 %132(%"class.std::ctype"* nonnull align 8 dereferenceable(570) %118, i8 signext 10)
  br label %134

134:                                              ; preds = %125, %128
  %135 = phi i8 [ %127, %125 ], [ %133, %128 ]
  %136 = call nonnull align 8 dereferenceable(8) %"class.std::basic_ostream"* @_ZNSo3putEc(%"class.std::basic_ostream"* nonnull align 8 dereferenceable(8) %108, i8 signext %135)
  br label %137

137:                                              ; preds = %134, %57
  %138 = phi %"class.std::basic_ostream"* [ %136, %134 ], [ %59, %57 ]
  %139 = call nonnull align 8 dereferenceable(8) %"class.std::basic_ostream"* @_ZNSo5flushEv(%"class.std::basic_ostream"* nonnull align 8 dereferenceable(8) %138)
  %140 = load i32, i32* %2, align 4, !tbaa !5
  %141 = add nsw i32 %140, -1
  store i32 %141, i32* %2, align 4, !tbaa !5
  %142 = icmp eq i32 %140, 0
  br i1 %142, label %143, label %13, !llvm.loop !22

143:                                              ; preds = %137, %0
  call void @llvm.lifetime.end.p0i8(i64 4, i8* nonnull %6) #8
  call void @llvm.lifetime.end.p0i8(i64 4, i8* nonnull %5) #8
  call void @llvm.lifetime.end.p0i8(i64 84, i8* nonnull %4) #8
  ret i32 0
}

; Function Attrs: argmemonly mustprogress nofree nosync nounwind willreturn
declare void @llvm.lifetime.start.p0i8(i64 immarg, i8* nocapture) #4

; Function Attrs: argmemonly mustprogress nofree nounwind willreturn writeonly
declare void @llvm.memset.p0i8.i64(i8* nocapture writeonly, i8, i64, i1 immarg) #5

declare nonnull align 8 dereferenceable(16) %"class.std::basic_istream"* @_ZNSirsERi(%"class.std::basic_istream"* nonnull align 8 dereferenceable(16), i32* nonnull align 4 dereferenceable(4)) local_unnamed_addr #0

declare nonnull align 8 dereferenceable(8) %"class.std::basic_ostream"* @_ZNSolsEi(%"class.std::basic_ostream"* nonnull align 8 dereferenceable(8), i32) local_unnamed_addr #0

; Function Attrs: argmemonly mustprogress nofree nosync nounwind willreturn
declare void @llvm.lifetime.end.p0i8(i64 immarg, i8* nocapture) #4

declare nonnull align 8 dereferenceable(8) %"class.std::basic_ostream"* @_ZNSo3putEc(%"class.std::basic_ostream"* nonnull align 8 dereferenceable(8), i8 signext) local_unnamed_addr #0

declare nonnull align 8 dereferenceable(8) %"class.std::basic_ostream"* @_ZNSo5flushEv(%"class.std::basic_ostream"* nonnull align 8 dereferenceable(8)) local_unnamed_addr #0

; Function Attrs: noreturn
declare void @_ZSt16__throw_bad_castv() local_unnamed_addr #6

declare void @_ZNKSt5ctypeIcE13_M_widen_initEv(%"class.std::ctype"* nonnull align 8 dereferenceable(570)) local_unnamed_addr #0

; Function Attrs: sspstrong uwtable
define internal void @_GLOBAL__sub_I_293.cpp() #7 section ".text.startup" {
  tail call void @_ZNSt8ios_base4InitC1Ev(%"class.std::ios_base::Init"* nonnull align 1 dereferenceable(1) @_ZStL8__ioinit)
  %1 = tail call i32 @__cxa_atexit(void (i8*)* bitcast (void (%"class.std::ios_base::Init"*)* @_ZNSt8ios_base4InitD1Ev to void (i8*)*), i8* getelementptr inbounds (%"class.std::ios_base::Init", %"class.std::ios_base::Init"* @_ZStL8__ioinit, i64 0, i32 0), i8* nonnull @__dso_handle) #8
  ret void
}


!llvm.module.flags = !{!0, !1, !2, !3}
!llvm.ident = !{!4}

!0 = !{i32 1, !"wchar_size", i32 4}
!1 = !{i32 7, !"PIC Level", i32 2}
!2 = !{i32 7, !"PIE Level", i32 2}
!3 = !{i32 7, !"uwtable", i32 1}
!4 = !{!"clang version 13.0.0"}
!5 = !{!6, !6, i64 0}
!6 = !{!"int", !7, i64 0}
!7 = !{!"omnipotent char", !8, i64 0}
!8 = !{!"Simple C++ TBAA"}
!9 = !{!10, !10, i64 0}
!10 = !{!"vtable pointer", !8, i64 0}
!11 = !{!12, !13, i64 240}
!12 = !{!"_ZTSSt9basic_iosIcSt11char_traitsIcEE", !13, i64 216, !7, i64 224, !14, i64 225, !13, i64 232, !13, i64 240, !13, i64 248, !13, i64 256}
!13 = !{!"any pointer", !7, i64 0}
!14 = !{!"bool", !7, i64 0}
!15 = !{!16, !7, i64 56}
!16 = !{!"_ZTSSt5ctypeIcE", !13, i64 16, !14, i64 24, !13, i64 32, !13, i64 40, !13, i64 48, !7, i64 56, !7, i64 57, !7, i64 313, !7, i64 569}
!17 = !{!7, !7, i64 0}
!18 = distinct !{!18, !19}
!19 = !{!"llvm.loop.mustprogress"}
!20 = distinct !{!20, !21}
!21 = !{!"llvm.loop.unroll.disable"}
!22 = distinct !{!22, !19}
